; Function Attrs: mustprogress nounwind uwtable
define dso_local noundef zeroext i1 @_ZN4node6crypto13SetTLSSessionERKSt10unique_ptrI6ssl_stNS_15FunctionDeleterIS2_XadL_Z8SSL_freeEEEEERKS1_I14ssl_session_stNS3_IS8_XadL_Z16SSL_SESSION_freeEEEEE(ptr nocapture noundef nonnull readonly align 8 dereferenceable(8) %ssl, ptr nocapture noundef nonnull readonly align 8 dereferenceable(8) %session) local_unnamed_addr #3 {
entry:
  %0 = load ptr, ptr %session, align 8
  %cmp.i.i.not = icmp eq ptr %0, null
  br i1 %cmp.i.i.not, label %land.end, label %land.rhs

land.rhs:                                         ; preds = %entry
  %1 = load ptr, ptr %ssl, align 8
  %call3 = tail call i32 @SSL_set_session(ptr noundef %1, ptr noundef nonnull %0) #17
  %cmp = icmp eq i32 %call3, 1
  br label %land.end

land.end:                                         ; preds = %land.rhs, %entry
  %2 = phi i1 [ false, %entry ], [ %cmp, %land.rhs ]
  ret i1 %2
}